; Function Attrs: nounwind uwtable
define void @Java_com_sun_java_swing_plaf_gtk_GTKEngine_native_1paint_1box(ptr noundef %0, ptr nocapture noundef readnone %1, i32 noundef %2, i32 noundef %3, i32 noundef %4, ptr noundef %5, i32 noundef %6, i32 noundef %7, i32 noundef %8, i32 noundef %9, i32 noundef %10, i32 noundef %11) local_unnamed_addr #0 {
  %13 = load ptr, ptr @gtk, align 8
  %14 = getelementptr inbounds i8, ptr %13, i64 248
  %15 = load ptr, ptr %14, align 8
  tail call void %15() #4
  %16 = load ptr, ptr @gtk, align 8
  %17 = getelementptr inbounds i8, ptr %16, i64 56
  %18 = load ptr, ptr %17, align 8
  %19 = load ptr, ptr %0, align 8
  %20 = getelementptr inbounds i8, ptr %19, i64 1312
  %21 = load ptr, ptr %20, align 8
  %22 = tail call i32 %21(ptr noundef nonnull %0, ptr noundef %5) #4
  %spec.store.select.i = tail call i32 @llvm.smin.i32(i32 %22, i32 127)
  tail call void @llvm.memset.p0.i64(ptr noundef nonnull align 16 dereferenceable(382) @conversionBuffer, i8 0, i64 382, i1 false)
  %23 = load ptr, ptr %0, align 8
  %24 = getelementptr inbounds i8, ptr %23, i64 1768
  %25 = load ptr, ptr %24, align 8
  tail call void %25(ptr noundef nonnull %0, ptr noundef %5, i32 noundef 0, i32 noundef %spec.store.select.i, ptr noundef nonnull @conversionBuffer) #4
  tail call void %18(i32 noundef %2, i32 noundef %3, i32 noundef %4, ptr noundef nonnull @conversionBuffer, i32 noundef %6, i32 noundef %7, i32 noundef %8, i32 noundef %9, i32 noundef %10, i32 noundef %11) #4
  %26 = load ptr, ptr @gtk, align 8
  %27 = getelementptr inbounds i8, ptr %26, i64 256
  %28 = load ptr, ptr %27, align 8
  tail call void %28() #4
  ret void
}